Certificate:
    Data:
        Version: 3 (0x2)
        Serial Number: 59 (0x3b)
        Signature Algorithm: sha1WithRSAEncryption
        Issuer: C=NO, O=NORGES TEKNISK-NATURVITENSKAPELIGE UNIVERSITET NTNU, OU=Telematics, CN=Student CA
        Validity
            Not Before: Feb 18 17:01:08 2008 GMT
            Not After : Nov 14 17:01:08 2010 GMT
        Subject: C=NO, O=NORGES TEKNISK-NATURVITENSKAPELIGE UNIVERSITET NTNU, OU=Telematics, CN=davidro@stud.ntnu.no
        Subject Public Key Info:
            Public Key Algorithm: rsaEncryption
            RSA Public Key: (2048 bit)
                Modulus (2048 bit):
                    00:be:84:c8:98:84:1b:a5:de:59:80:37:c3:e7:5f:
                    56:59:a8:e9:fe:24:bd:a8:f9:cd:c1:d8:d0:c9:48:
                    f0:8e:25:47:02:ea:bd:ff:51:62:e8:4a:44:42:93:
                    45:e4:3f:44:56:fc:3e:a3:a1:05:17:85:ac:4e:f8:
                    7a:e3:83:68:cb:83:15:a9:ab:74:82:7a:8b:b6:99:
                    55:7f:fa:c3:ea:d5:0f:99:92:0e:b9:c7:f6:83:1b:
                    39:88:3e:ac:0d:e5:43:f2:d9:34:bb:86:b2:1a:fd:
                    e8:ba:c4:b4:00:cd:44:c7:f5:32:f6:54:6c:bf:df:
                    c7:c5:cd:fc:d0:e7:4c:90:05:d5:ed:05:d3:e5:40:
                    1e:a0:e7:af:eb:a1:71:85:4f:1f:3f:4f:75:d6:25:
                    86:75:43:d2:4d:1b:bb:37:30:aa:4b:80:8d:23:ba:
                    6a:9e:a8:19:23:4f:be:2f:80:3e:26:1f:34:92:d7:
                    2c:09:f9:cc:3d:65:6a:eb:7b:0e:b4:50:2b:ba:ea:
                    64:10:76:4c:b9:b5:02:86:3a:fd:70:90:f4:a2:92:
                    4e:bd:3c:0e:5b:f0:e6:de:51:e8:54:53:16:25:8d:
                    cd:3b:40:f9:19:20:65:c1:15:ea:30:6f:2f:de:3b:
                    0e:67:e9:cf:00:12:4d:2f:a7:b9:e0:89:04:ed:c6:
                    19:39
                Exponent: 65537 (0x10001)
        X509v3 extensions:
            X509v3 Subject Key Identifier: 
                DC:7F:84:02:7C:7C:D0:DD:12:F7:BA:F0:70:65:39:4B:53:57:81:7C
            X509v3 Authority Key Identifier: 
                keyid:C1:F7:CF:43:E4:BB:63:F0:94:CD:F7:2E:44:B3:24:95:41:D8:FB:2F
                DirName:/C=NO/O=NORGES TEKNISK-NATURVITENSKAPELIGE UNIVERSITET NTNU/OU=Telematics/CN=NTNU CA
                serial:03

            X509v3 Basic Constraints: 
                CA:FALSE
            X509v3 Key Usage: 
                Digital Signature, Non Repudiation, Key Encipherment
    Signature Algorithm: sha1WithRSAEncryption
        9f:88:3f:88:81:72:31:75:ed:0d:91:a1:be:74:9d:20:9d:fc:
        1c:6d:89:8d:ff:99:9a:e5:17:92:34:08:66:c7:d1:2f:df:23:
        4f:c5:b9:60:a7:a6:ea:6a:5d:35:c1:74:5d:d9:90:e8:71:bb:
        f4:51:0a:1a:78:22:4f:c8:45:1f:2b:d7:2e:2a:34:dc:00:6e:
        78:34:9c:7f:8c:ac:e1:05:87:83:1c:01:04:34:fc:dc:89:18:
        d6:e3:06:74:54:47:89:e2:bf:50:88:66:f7:4f:57:3f:79:49:
        4c:ed:08:dd:f5:de:82:80:5e:32:98:43:14:aa:5b:5a:b4:7d:
        66:8a:13:06:d2:6a:ea:ba:8f:45:d9:15:8a:ed:40:e5:6e:f4:
        23:50:e5:a5:64:3e:58:a8:37:67:d1:8f:c0:26:18:f1:2b:6b:
        67:26:4c:91:a0:b5:35:c6:12:fb:2b:3c:7d:9b:4c:d2:14:9c:
        1d:d2:f7:e3:01:bd:94:84:db:69:d7:e1:a1:fb:a9:da:e0:78:
        ea:28:0a:a8:a6:8a:2d:9f:74:14:d8:89:d0:f8:17:ec:0b:b3:
        2b:2f:5d:6f:18:87:d3:61:f0:b7:4d:83:f5:a3:ed:75:2f:62:
        85:f5:64:8c:cd:00:35:c4:e2:22:37:d5:2d:e4:81:c7:8d:8f:
        69:0c:ce:03
-----BEGIN CERTIFICATE-----
MIIESTCCAzGgAwIBAgIBOzANBgkqhkiG9w0BAQUFADB1MQswCQYDVQQGEwJOTzE8
MDoGA1UECgwzTk9SR0VTIFRFS05JU0stTkFUVVJWSVRFTlNLQVBFTElHRSBVTklW
RVJTSVRFVCBOVE5VMRMwEQYDVQQLDApUZWxlbWF0aWNzMRMwEQYDVQQDDApTdHVk
ZW50IENBMB4XDTA4MDIxODE3MDEwOFoXDTEwMTExNDE3MDEwOFowfzELMAkGA1UE
BhMCTk8xPDA6BgNVBAoMM05PUkdFUyBURUtOSVNLLU5BVFVSVklURU5TS0FQRUxJ
R0UgVU5JVkVSU0lURVQgTlROVTETMBEGA1UECwwKVGVsZW1hdGljczEdMBsGA1UE
AwwUZGF2aWRyb0BzdHVkLm50bnUubm8wggEiMA0GCSqGSIb3DQEBAQUAA4IBDwAw
ggEKAoIBAQC+hMiYhBul3lmAN8PnX1ZZqOn+JL2o+c3B2NDJSPCOJUcC6r3/UWLo
SkRCk0XkP0RW/D6joQUXhaxO+Hrjg2jLgxWpq3SCeou2mVV/+sPq1Q+Zkg65x/aD
GzmIPqwN5UPy2TS7hrIa/ei6xLQAzUTH9TL2VGy/38fFzfzQ50yQBdXtBdPlQB6g
56/roXGFTx8/T3XWJYZ1Q9JNG7s3MKpLgI0jumqeqBkjT74vgD4mHzSS1ywJ+cw9
ZWrrew60UCu66mQQdky5tQKGOv1wkPSikk69PA5b8ObeUehUUxYljc07QPkZIGXB
Feowby/eOw5n6c8AEk0vp7ngiQTtxhk5AgMBAAGjgdkwgdYwHQYDVR0OBBYEFNx/
hAJ8fNDdEve68HBlOUtTV4F8MIGcBgNVHSMEgZQwgZGAFMH3z0Pku2PwlM33LkSz
JJVB2PsvoXakdDByMQswCQYDVQQGEwJOTzE8MDoGA1UECgwzTk9SR0VTIFRFS05J
U0stTkFUVVJWSVRFTlNLQVBFTElHRSBVTklWRVJTSVRFVCBOVE5VMRMwEQYDVQQL
DApUZWxlbWF0aWNzMRAwDgYDVQQDDAdOVE5VIENBggEDMAkGA1UdEwQCMAAwCwYD
VR0PBAQDAgXgMA0GCSqGSIb3DQEBBQUAA4IBAQCfiD+IgXIxde0NkaG+dJ0gnfwc
bYmN/5ma5ReSNAhmx9Ev3yNPxblgp6bqal01wXRd2ZDocbv0UQoaeCJPyEUfK9cu
KjTcAG54NJx/jKzhBYeDHAEENPzciRjW4wZ0VEeJ4r9QiGb3T1c/eUlM7Qjd9d6C
gF4ymEMUqltatH1mihMG0mrquo9F2RWK7UDlbvQjUOWlZD5YqDdn0Y/AJhjxK2tn
JkyRoLU1xhL7Kzx9m0zSFJwd0vfjAb2UhNtp1+Gh+6na4HjqKAqopootn3QU2InQ
+BfsC7MrL11vGIfTYfC3TYP1o+11L2KF9WSMzQA1xOIiN9Ut5IHHjY9pDM4D
-----END CERTIFICATE-----
