Certificate:
    Data:
        Version: 3 (0x2)
        Serial Number: 18 (0x12)
        Signature Algorithm: sha1WithRSAEncryption
        Issuer: C=NO, O=NORGES TEKNISK-NATURVITENSKAPELIGE UNIVERSITET NTNU, OU=Telematics, CN=TTM4135 CA
        Validity
            Not Before: Feb 19 18:49:48 2008 GMT
            Not After : Nov 15 18:49:48 2010 GMT
        Subject: C=NO, O=NORGES TEKNISK-NATURVITENSKAPELIGE UNIVERSITET NTNU, OU=Telematics, CN=Gr16 CA
        Subject Public Key Info:
            Public Key Algorithm: rsaEncryption
            RSA Public Key: (2048 bit)
                Modulus (2048 bit):
                    00:cb:10:cb:54:08:ff:74:b2:8c:18:af:a5:b3:c1:
                    89:35:23:1e:1f:7e:cc:0e:91:2b:6b:69:52:fe:c0:
                    7a:46:25:62:d7:28:3a:6c:3f:75:dc:0f:d7:54:af:
                    12:b9:ea:2d:bd:c3:db:eb:ef:b1:be:35:38:b6:f8:
                    6f:6a:f9:d8:35:d4:5a:14:8c:4a:e4:55:a1:94:0c:
                    d6:64:fd:92:45:aa:08:40:e4:86:40:dd:fa:ab:50:
                    32:4c:d7:23:f1:19:51:4c:83:f8:64:e9:fd:21:2f:
                    11:f1:1d:25:62:a9:10:d7:c3:fd:64:a5:e1:97:81:
                    23:8e:33:57:58:13:58:06:20:b7:8d:1c:42:0f:6a:
                    05:f1:e2:91:4e:01:94:b0:79:88:1c:22:30:e0:27:
                    44:9e:2d:14:8c:68:7f:3e:41:bb:e9:a5:2c:29:88:
                    98:77:3f:34:af:2a:1c:3d:74:6d:fd:5f:a5:ff:21:
                    ca:4e:5f:c2:09:3f:72:87:c2:b4:e4:8b:52:48:f7:
                    07:84:df:54:b0:0b:b5:49:e4:26:76:5a:18:26:15:
                    ab:22:37:ad:ac:fe:77:ad:2f:57:77:99:9b:04:eb:
                    92:ec:97:1b:8d:90:a6:cd:8d:55:9e:b0:66:c7:05:
                    10:62:85:ae:16:ff:16:97:1a:8e:66:11:8f:88:88:
                    9d:df
                Exponent: 65537 (0x10001)
        X509v3 extensions:
            X509v3 Subject Key Identifier: 
                11:B8:73:84:64:32:15:CD:16:CC:45:0F:9C:71:CB:FF:C4:61:DA:9A
            X509v3 Authority Key Identifier: 
                keyid:59:DF:CD:7F:3E:FB:0F:DB:20:0C:82:BE:E6:F6:D1:3F:A7:CE:96:86
                DirName:/C=NO/O=NORGES TEKNISK-NATURVITENSKAPELIGE UNIVERSITET NTNU/OU=Telematics/CN=Service CA
                serial:04

            X509v3 Basic Constraints: critical
                CA:TRUE, pathlen:0
            X509v3 Key Usage: 
                Certificate Sign, CRL Sign
    Signature Algorithm: sha1WithRSAEncryption
        5b:51:db:25:26:2e:10:4a:89:16:63:dd:f1:4f:1d:c6:40:03:
        66:f7:d2:5a:90:b9:12:fb:2c:a8:3b:e4:55:ea:ab:e7:5d:05:
        23:ab:84:54:c6:8e:67:a5:22:b9:c0:ce:a4:0d:a5:90:70:3b:
        d3:4c:6f:39:e0:f8:0d:7e:23:26:c4:e5:d4:de:bf:5d:bb:59:
        fb:cb:ba:af:94:a0:a0:2f:6a:65:7c:83:29:c8:3d:24:66:b4:
        d4:fa:34:5d:01:50:2b:cc:23:98:75:bb:5f:d0:61:26:7a:2b:
        1a:81:f6:8b:fc:71:47:2b:04:05:39:bd:ea:bf:c3:79:3d:6d:
        ab:10:64:4f:fc:e1:bd:92:65:49:b5:c1:c6:a2:0f:dc:83:10:
        6e:dc:7f:ab:f3:0e:9a:55:95:7a:e0:37:ea:19:b8:6b:a4:c0:
        6b:15:91:1c:13:05:63:be:e3:fa:b9:67:ae:f8:41:fd:9c:35:
        ca:58:6e:20:10:93:b2:ef:eb:08:fd:73:79:95:a6:db:9c:99:
        1d:37:c8:d0:26:0c:f1:2e:c9:87:b5:98:13:ef:59:87:fb:a0:
        35:69:28:89:f9:5c:1e:99:de:a4:e6:58:40:0f:be:44:d0:26:
        35:7a:e2:74:6e:70:1d:f6:73:a0:c3:38:45:fb:33:09:c9:ed:
        30:5c:3a:4a
-----BEGIN CERTIFICATE-----
MIIESDCCAzCgAwIBAgIBEjANBgkqhkiG9w0BAQUFADB1MQswCQYDVQQGEwJOTzE8
MDoGA1UECgwzTk9SR0VTIFRFS05JU0stTkFUVVJWSVRFTlNLQVBFTElHRSBVTklW
RVJTSVRFVCBOVE5VMRMwEQYDVQQLDApUZWxlbWF0aWNzMRMwEQYDVQQDDApUVE00
MTM1IENBMB4XDTA4MDIxOTE4NDk0OFoXDTEwMTExNTE4NDk0OFowcjELMAkGA1UE
BhMCTk8xPDA6BgNVBAoMM05PUkdFUyBURUtOSVNLLU5BVFVSVklURU5TS0FQRUxJ
R0UgVU5JVkVSU0lURVQgTlROVTETMBEGA1UECwwKVGVsZW1hdGljczEQMA4GA1UE
AwwHR3IxNiBDQTCCASIwDQYJKoZIhvcNAQEBBQADggEPADCCAQoCggEBAMsQy1QI
/3SyjBivpbPBiTUjHh9+zA6RK2tpUv7AekYlYtcoOmw/ddwP11SvErnqLb3D2+vv
sb41OLb4b2r52DXUWhSMSuRVoZQM1mT9kkWqCEDkhkDd+qtQMkzXI/EZUUyD+GTp
/SEvEfEdJWKpENfD/WSl4ZeBI44zV1gTWAYgt40cQg9qBfHikU4BlLB5iBwiMOAn
RJ4tFIxofz5Bu+mlLCmImHc/NK8qHD10bf1fpf8hyk5fwgk/cofCtOSLUkj3B4Tf
VLALtUnkJnZaGCYVqyI3raz+d60vV3eZmwTrkuyXG42Qps2NVZ6wZscFEGKFrhb/
FpcajmYRj4iInd8CAwEAAaOB5TCB4jAdBgNVHQ4EFgQUEbhzhGQyFc0WzEUPnHHL
/8Rh2powgZ8GA1UdIwSBlzCBlIAUWd/Nfz77D9sgDIK+5vbRP6fOloaheaR3MHUx
CzAJBgNVBAYTAk5PMTwwOgYDVQQKDDNOT1JHRVMgVEVLTklTSy1OQVRVUlZJVEVO
U0tBUEVMSUdFIFVOSVZFUlNJVEVUIE5UTlUxEzARBgNVBAsMClRlbGVtYXRpY3Mx
EzARBgNVBAMMClNlcnZpY2UgQ0GCAQQwEgYDVR0TAQH/BAgwBgEB/wIBADALBgNV
HQ8EBAMCAQYwDQYJKoZIhvcNAQEFBQADggEBAFtR2yUmLhBKiRZj3fFPHcZAA2b3
0lqQuRL7LKg75FXqq+ddBSOrhFTGjmelIrnAzqQNpZBwO9NMbzng+A1+IybE5dTe
v127WfvLuq+UoKAvamV8gynIPSRmtNT6NF0BUCvMI5h1u1/QYSZ6KxqB9ov8cUcr
BAU5veq/w3k9basQZE/84b2SZUm1wcaiD9yDEG7cf6vzDppVlXrgN+oZuGukwGsV
kRwTBWO+4/q5Z674Qf2cNcpYbiAQk7Lv6wj9c3mVptucmR03yNAmDPEuyYe1mBPv
WYf7oDVpKIn5XB6Z3qTmWEAPvkTQJjV64nRucB32c6DDOEX7MwnJ7TBcOko=
-----END CERTIFICATE-----
