Certificate:
    Data:
        Version: 3 (0x2)
        Serial Number: 60 (0x3c)
        Signature Algorithm: sha1WithRSAEncryption
        Issuer: C=NO, O=NORGES TEKNISK-NATURVITENSKAPELIGE UNIVERSITET NTNU, OU=Telematics, CN=Student CA
        Validity
            Not Before: Feb 18 17:01:55 2008 GMT
            Not After : Nov 14 17:01:55 2010 GMT
        Subject: C=NO, O=NORGES TEKNISK-NATURVITENSKAPELIGE UNIVERSITET NTNU, OU=Telematics, CN=masse@stud.ntnu.no
        Subject Public Key Info:
            Public Key Algorithm: rsaEncryption
            RSA Public Key: (2048 bit)
                Modulus (2048 bit):
                    00:c9:b8:72:2a:25:23:d0:d6:92:11:c5:ff:ec:e3:
                    13:44:1a:6c:34:c1:fe:17:df:62:49:c6:c9:8d:98:
                    81:10:5a:d6:f6:b0:0d:a9:74:35:cd:c3:85:18:23:
                    a9:2a:81:6e:b4:c4:dd:66:41:2f:43:6d:ea:0a:a6:
                    01:0b:b7:c9:ca:39:b5:4a:75:9d:40:90:bb:e6:0d:
                    70:54:f3:b6:07:e3:20:bf:9e:11:7c:ab:27:6c:8f:
                    dd:85:ba:57:6d:40:ac:37:2a:7f:5b:0c:91:d3:f2:
                    e1:47:cf:d0:6f:2f:04:5c:19:94:bd:56:0e:23:65:
                    4f:75:fc:61:f2:f3:2b:16:6d:8c:28:43:ef:88:83:
                    2d:24:df:9a:9d:6e:41:d4:43:f8:5c:24:ef:91:bc:
                    e4:94:e9:7c:64:23:fb:70:9c:e8:8c:d8:cb:7c:8b:
                    1a:c7:5a:5f:c0:f1:ab:5f:ee:32:14:1f:ec:52:26:
                    4c:a9:9b:33:ce:d4:31:fb:0b:9a:90:2e:31:27:e1:
                    8f:db:79:72:92:02:3a:1b:17:57:29:5d:2e:97:12:
                    6c:32:8a:8f:a0:40:56:e3:d3:27:42:c2:a4:be:7e:
                    c7:98:f3:e7:55:e2:c9:e3:0a:25:97:d2:53:59:d7:
                    03:a6:73:8b:3f:20:ea:2d:29:b2:ad:c7:b8:5b:10:
                    2a:4d
                Exponent: 65537 (0x10001)
        X509v3 extensions:
            X509v3 Subject Key Identifier: 
                9F:5C:79:33:CD:89:55:5E:7C:B6:C7:9A:89:1A:7B:30:FB:4E:E7:FE
            X509v3 Authority Key Identifier: 
                keyid:C1:F7:CF:43:E4:BB:63:F0:94:CD:F7:2E:44:B3:24:95:41:D8:FB:2F
                DirName:/C=NO/O=NORGES TEKNISK-NATURVITENSKAPELIGE UNIVERSITET NTNU/OU=Telematics/CN=NTNU CA
                serial:03

            X509v3 Basic Constraints: 
                CA:FALSE
            X509v3 Key Usage: 
                Digital Signature, Non Repudiation, Key Encipherment
    Signature Algorithm: sha1WithRSAEncryption
        71:06:d3:ba:af:f6:a8:a7:0f:3a:d4:bd:c6:7d:bd:d8:2f:a1:
        1c:0c:21:62:49:0c:93:57:d2:6c:5c:de:03:23:b7:b7:a7:24:
        58:4e:58:73:30:90:f1:72:20:08:59:d2:c2:f8:4d:34:56:19:
        13:89:0e:d4:f1:61:a6:d1:62:f8:77:73:43:6a:57:c9:8a:cb:
        7c:53:59:eb:08:3b:3a:6f:7b:28:30:b3:fc:6c:18:f9:56:f4:
        32:d2:a0:76:3e:d6:47:63:90:d4:38:c3:bf:77:c1:f7:98:dd:
        5c:d4:78:3a:d9:e3:93:de:a6:89:81:5e:cc:76:1a:48:d1:97:
        e2:02:ef:7e:ea:75:2f:28:c9:d9:91:fe:05:db:db:af:ba:2c:
        de:88:7c:5e:8d:6f:8e:0a:0e:f8:9e:1a:d7:8d:2d:cd:3a:fa:
        ba:71:9e:ff:50:6c:be:10:0c:fe:7e:86:81:03:e4:e9:64:18:
        09:f4:08:29:35:8d:c7:df:ec:5a:09:94:e7:41:7f:28:de:e2:
        66:16:ee:ea:48:cc:89:9c:ac:a5:1d:81:8e:98:42:a9:ce:1b:
        49:b5:e5:09:34:ea:e4:9a:74:80:7e:fa:4d:ee:13:8e:01:68:
        76:7c:43:f5:ce:14:19:40:cd:e2:13:b5:bb:27:5b:ef:92:65:
        f1:08:6a:61
-----BEGIN CERTIFICATE-----
MIIERzCCAy+gAwIBAgIBPDANBgkqhkiG9w0BAQUFADB1MQswCQYDVQQGEwJOTzE8
MDoGA1UECgwzTk9SR0VTIFRFS05JU0stTkFUVVJWSVRFTlNLQVBFTElHRSBVTklW
RVJTSVRFVCBOVE5VMRMwEQYDVQQLDApUZWxlbWF0aWNzMRMwEQYDVQQDDApTdHVk
ZW50IENBMB4XDTA4MDIxODE3MDE1NVoXDTEwMTExNDE3MDE1NVowfTELMAkGA1UE
BhMCTk8xPDA6BgNVBAoMM05PUkdFUyBURUtOSVNLLU5BVFVSVklURU5TS0FQRUxJ
R0UgVU5JVkVSU0lURVQgTlROVTETMBEGA1UECwwKVGVsZW1hdGljczEbMBkGA1UE
AwwSbWFzc2VAc3R1ZC5udG51Lm5vMIIBIjANBgkqhkiG9w0BAQEFAAOCAQ8AMIIB
CgKCAQEAybhyKiUj0NaSEcX/7OMTRBpsNMH+F99iScbJjZiBEFrW9rANqXQ1zcOF
GCOpKoFutMTdZkEvQ23qCqYBC7fJyjm1SnWdQJC75g1wVPO2B+Mgv54RfKsnbI/d
hbpXbUCsNyp/WwyR0/LhR8/Qby8EXBmUvVYOI2VPdfxh8vMrFm2MKEPviIMtJN+a
nW5B1EP4XCTvkbzklOl8ZCP7cJzojNjLfIsax1pfwPGrX+4yFB/sUiZMqZszztQx
+wuakC4xJ+GP23lykgI6GxdXKV0ulxJsMoqPoEBW49MnQsKkvn7HmPPnVeLJ4wol
l9JTWdcDpnOLPyDqLSmyrce4WxAqTQIDAQABo4HZMIHWMB0GA1UdDgQWBBSfXHkz
zYlVXny2x5qJGnsw+07n/jCBnAYDVR0jBIGUMIGRgBTB989D5Ltj8JTN9y5EsySV
Qdj7L6F2pHQwcjELMAkGA1UEBhMCTk8xPDA6BgNVBAoMM05PUkdFUyBURUtOSVNL
LU5BVFVSVklURU5TS0FQRUxJR0UgVU5JVkVSU0lURVQgTlROVTETMBEGA1UECwwK
VGVsZW1hdGljczEQMA4GA1UEAwwHTlROVSBDQYIBAzAJBgNVHRMEAjAAMAsGA1Ud
DwQEAwIF4DANBgkqhkiG9w0BAQUFAAOCAQEAcQbTuq/2qKcPOtS9xn292C+hHAwh
YkkMk1fSbFzeAyO3t6ckWE5YczCQ8XIgCFnSwvhNNFYZE4kO1PFhptFi+HdzQ2pX
yYrLfFNZ6wg7Om97KDCz/GwY+Vb0MtKgdj7WR2OQ1DjDv3fB95jdXNR4Otnjk96m
iYFezHYaSNGX4gLvfup1LyjJ2ZH+Bdvbr7os3oh8Xo1vjgoO+J4a140tzTr6unGe
/1BsvhAM/n6GgQPk6WQYCfQIKTWNx9/sWgmU50F/KN7iZhbu6kjMiZyspR2BjphC
qc4bSbXlCTTq5Jp0gH76Te4TjgFodnxD9c4UGUDN4hO1uydb75Jl8QhqYQ==
-----END CERTIFICATE-----
